target datalayout = "e-m:e-p270:32:32-p271:32:32-p272:64:64-i64:64-i128:128-f80:128-n8:16:32:64-S128"
target triple = "x86_64-pc-linux-gnu"

%"class.clang::QualType" = type { %"class.llvm::PointerIntPair.139" }
%"class.llvm::PointerIntPair.139" = type { %"struct.llvm::detail::PunnedPointer.140" }
%"struct.llvm::detail::PunnedPointer.140" = type { [8 x i8] }
%"class.clang::SourceLocation" = type { i32 }
%"class.llvm::PointerIntPair" = type { %"struct.llvm::detail::PunnedPointer" }
%"struct.llvm::detail::PunnedPointer" = type { [8 x i8] }
%"class.llvm::PointerUnion" = type { %"class.llvm::pointer_union_detail::PointerUnionMembers" }
%"class.llvm::pointer_union_detail::PointerUnionMembers" = type { %"class.llvm::pointer_union_detail::PointerUnionMembers.0" }
%"class.llvm::pointer_union_detail::PointerUnionMembers.0" = type { %"class.llvm::pointer_union_detail::PointerUnionMembers.1" }
%"class.llvm::pointer_union_detail::PointerUnionMembers.1" = type { %"class.llvm::PointerIntPair.2" }
%"class.llvm::PointerIntPair.2" = type { %"struct.llvm::detail::PunnedPointer.3" }
%"struct.llvm::detail::PunnedPointer.3" = type { [8 x i8] }
%"class.clang::Decl.base" = type <{ ptr, %"class.llvm::PointerIntPair", %"class.llvm::PointerUnion", %"class.clang::SourceLocation", i32, i8 }>
%"class.clang::DeclContext" = type { ptr, %union.anon.428, ptr, ptr }
%union.anon.428 = type { %"class.clang::DeclContext::RecordDeclBitfields" }
%"class.clang::DeclContext::RecordDeclBitfields" = type { i64 }
%"class.llvm::PointerUnion.429" = type { %"class.llvm::pointer_union_detail::PointerUnionMembers.430" }
%"class.llvm::pointer_union_detail::PointerUnionMembers.430" = type { %"class.llvm::pointer_union_detail::PointerUnionMembers.431" }
%"class.llvm::pointer_union_detail::PointerUnionMembers.431" = type { %"class.llvm::pointer_union_detail::PointerUnionMembers.432" }
%"class.llvm::pointer_union_detail::PointerUnionMembers.432" = type { %"class.llvm::PointerIntPair.433" }
%"class.llvm::PointerIntPair.433" = type { %"struct.llvm::detail::PunnedPointer.3" }
%"class.clang::NamedDecl" = type { %"class.clang::Decl.base", %"class.clang::DeclarationName" }
%"class.clang::DeclarationName" = type { i64 }
%"class.clang::TagDecl" = type { %"class.clang::TypeDecl.base", %"class.clang::DeclContext", %"class.clang::Redeclarable.488", %"class.clang::SourceRange", %"class.llvm::PointerUnion.489" }
%"class.clang::TypeDecl.base" = type <{ %"class.clang::NamedDecl", ptr, %"class.clang::SourceLocation" }>
%"class.clang::Redeclarable.488" = type { %"class.clang::Redeclarable<clang::TagDecl>::DeclLink", ptr }
%"class.clang::Redeclarable<clang::TagDecl>::DeclLink" = type { %"class.llvm::PointerUnion.429" }
%"class.clang::SourceRange" = type { %"class.clang::SourceLocation", %"class.clang::SourceLocation" }
%"class.llvm::PointerUnion.489" = type { %"class.llvm::pointer_union_detail::PointerUnionMembers.490" }
%"class.llvm::pointer_union_detail::PointerUnionMembers.490" = type { %"class.llvm::pointer_union_detail::PointerUnionMembers.491" }
%"class.llvm::pointer_union_detail::PointerUnionMembers.491" = type { %"class.llvm::pointer_union_detail::PointerUnionMembers.492" }
%"class.llvm::pointer_union_detail::PointerUnionMembers.492" = type { %"class.llvm::PointerIntPair.493" }
%"class.llvm::PointerIntPair.493" = type { %"struct.llvm::detail::PunnedPointer.3" }
%"class.clang::MemberSpecializationInfo" = type { %"class.llvm::PointerIntPair.740", %"class.clang::SourceLocation", [4 x i8] }
%"class.llvm::PointerIntPair.740" = type { %"struct.llvm::detail::PunnedPointer.741" }
%"struct.llvm::detail::PunnedPointer.741" = type { [8 x i8] }
%"class.clang::EnumDecl" = type <{ %"class.clang::TagDecl", %"class.llvm::PointerUnion.584", %"class.clang::QualType", ptr, i32, [4 x i8] }>
%"class.llvm::PointerUnion.584" = type { %"class.llvm::pointer_union_detail::PointerUnionMembers.585" }
%"class.llvm::pointer_union_detail::PointerUnionMembers.585" = type { %"class.llvm::pointer_union_detail::PointerUnionMembers.586" }
%"class.llvm::pointer_union_detail::PointerUnionMembers.586" = type { %"class.llvm::pointer_union_detail::PointerUnionMembers.587" }
%"class.llvm::pointer_union_detail::PointerUnionMembers.587" = type { %"class.llvm::PointerIntPair.588" }
%"class.llvm::PointerIntPair.588" = type { %"struct.llvm::detail::PunnedPointer.3" }

; Function Attrs: mustprogress nounwind uwtable
define linkonce_odr hidden noundef i64 @_ZNK4llvm6detail13PunnedPointerIPN5clang9NamedDeclEE5asIntEv(ptr noundef nonnull align 8 dereferenceable(8) %0) #0 comdat align 2 {
  %2 = alloca ptr, align 8
  %3 = alloca i64, align 8
  store ptr %0, ptr %2, align 8
  %4 = load ptr, ptr %2, align 8
  store i64 0, ptr %3, align 8
  %5 = getelementptr inbounds nuw %"struct.llvm::detail::PunnedPointer.741", ptr %4, i32 0, i32 0
  %6 = getelementptr inbounds [8 x i8], ptr %5, i64 0, i64 0
  call void @llvm.memcpy.p0.p0.i64(ptr align 8 %3, ptr align 8 %6, i64 8, i1 false)
  %7 = load i64, ptr %3, align 8
  ret i64 %7
}

; Function Attrs: mustprogress nounwind uwtable
define linkonce_odr hidden noundef nonnull align 8 dereferenceable(8) ptr @_ZN4llvm6detail13PunnedPointerIPN5clang9NamedDeclEEaSEl(ptr noundef nonnull align 8 dereferenceable(8) %0, i64 noundef %1) #0 comdat align 2 {
  %3 = alloca ptr, align 8
  %4 = alloca i64, align 8
  store ptr %0, ptr %3, align 8
  store i64 %1, ptr %4, align 8
  %5 = load ptr, ptr %3, align 8
  %6 = getelementptr inbounds nuw %"struct.llvm::detail::PunnedPointer.741", ptr %5, i32 0, i32 0
  %7 = getelementptr inbounds [8 x i8], ptr %6, i64 0, i64 0
  call void @llvm.memcpy.p0.p0.i64(ptr align 8 %7, ptr align 8 %4, i64 8, i1 false)
  ret ptr %5
}

; Function Attrs: mustprogress nounwind uwtable
define linkonce_odr hidden noundef i64 @_ZN4llvm18PointerIntPairInfoIPN5clang9NamedDeclELj2ENS_21PointerLikeTypeTraitsIS3_EEE9updateIntEll(i64 noundef %0, i64 noundef %1) #0 comdat align 2 {
  %3 = alloca i64, align 8
  %4 = alloca i64, align 8
  %5 = alloca i64, align 8
  store i64 %0, ptr %3, align 8
  store i64 %1, ptr %4, align 8
  %6 = load i64, ptr %4, align 8
  store i64 %6, ptr %5, align 8
  %7 = load i64, ptr %3, align 8
  %8 = and i64 %7, -7
  %9 = load i64, ptr %5, align 8
  %10 = shl i64 %9, 1
  %11 = or i64 %8, %10
  ret i64 %11
}

; Function Attrs: mustprogress nounwind uwtable
define linkonce_odr hidden noundef i64 @_ZNK4llvm6detail13PunnedPointerIPN5clang9NamedDeclEEcvlEv(ptr noundef nonnull align 8 dereferenceable(8) %0) #0 comdat align 2 {
  %2 = alloca ptr, align 8
  store ptr %0, ptr %2, align 8
  %3 = load ptr, ptr %2, align 8
  %4 = call noundef i64 @_ZNK4llvm6detail13PunnedPointerIPN5clang9NamedDeclEE5asIntEv(ptr noundef nonnull align 8 dereferenceable(8) %3)
  ret i64 %4
}

; Function Attrs: mustprogress nounwind uwtable
define linkonce_odr hidden void @_ZNR4llvm14PointerIntPairIPN5clang9NamedDeclELj2EjNS_21PointerLikeTypeTraitsIS3_EENS_18PointerIntPairInfoIS3_Lj2ES5_EEE6setIntEj(ptr noundef nonnull align 8 dereferenceable(8) %0, i32 noundef %1) #0 comdat align 2 {
  %3 = alloca ptr, align 8
  %4 = alloca i32, align 4
  store ptr %0, ptr %3, align 8
  store i32 %1, ptr %4, align 4
  %5 = load ptr, ptr %3, align 8
  %6 = getelementptr inbounds nuw %"class.llvm::PointerIntPair.740", ptr %5, i32 0, i32 0
  %7 = call noundef i64 @_ZNK4llvm6detail13PunnedPointerIPN5clang9NamedDeclEEcvlEv(ptr noundef nonnull align 8 dereferenceable(8) %6)
  %8 = load i32, ptr %4, align 4
  %9 = zext i32 %8 to i64
  %10 = call noundef i64 @_ZN4llvm18PointerIntPairInfoIPN5clang9NamedDeclELj2ENS_21PointerLikeTypeTraitsIS3_EEE9updateIntEll(i64 noundef %7, i64 noundef %9)
  %11 = getelementptr inbounds nuw %"class.llvm::PointerIntPair.740", ptr %5, i32 0, i32 0
  %12 = call noundef nonnull align 8 dereferenceable(8) ptr @_ZN4llvm6detail13PunnedPointerIPN5clang9NamedDeclEEaSEl(ptr noundef nonnull align 8 dereferenceable(8) %11, i64 noundef %10)
  ret void
}

; Function Attrs: mustprogress nounwind uwtable
define linkonce_odr hidden void @_ZN5clang24MemberSpecializationInfo23setPointOfInstantiationENS_14SourceLocationE(ptr noundef nonnull align 8 dereferenceable(12) %0, i32 %1) #0 comdat align 2 {
  %3 = alloca %"class.clang::SourceLocation", align 4
  %4 = alloca ptr, align 8
  %5 = getelementptr inbounds nuw %"class.clang::SourceLocation", ptr %3, i32 0, i32 0
  store i32 %1, ptr %5, align 4
  store ptr %0, ptr %4, align 8
  %6 = load ptr, ptr %4, align 8
  %7 = getelementptr inbounds nuw %"class.clang::MemberSpecializationInfo", ptr %6, i32 0, i32 1
  call void @llvm.memcpy.p0.p0.i64(ptr align 8 %7, ptr align 4 %3, i64 4, i1 false)
  ret void
}

; Function Attrs: mustprogress nounwind uwtable
define linkonce_odr hidden noundef zeroext i1 @_ZNK5clang14SourceLocation9isInvalidEv(ptr noundef nonnull align 4 dereferenceable(4) %0) #0 comdat align 2 {
  %2 = alloca ptr, align 8
  store ptr %0, ptr %2, align 8
  %3 = load ptr, ptr %2, align 8
  %4 = getelementptr inbounds nuw %"class.clang::SourceLocation", ptr %3, i32 0, i32 0
  %5 = load i32, ptr %4, align 4
  %6 = icmp eq i32 %5, 0
  ret i1 %6
}

; Function Attrs: mustprogress nounwind uwtable
define linkonce_odr hidden i32 @_ZNK5clang24MemberSpecializationInfo23getPointOfInstantiationEv(ptr noundef nonnull align 8 dereferenceable(12) %0) #0 comdat align 2 {
  %2 = alloca %"class.clang::SourceLocation", align 4
  %3 = alloca ptr, align 8
  store ptr %0, ptr %3, align 8
  %4 = load ptr, ptr %3, align 8
  %5 = getelementptr inbounds nuw %"class.clang::MemberSpecializationInfo", ptr %4, i32 0, i32 1
  call void @llvm.memcpy.p0.p0.i64(ptr align 4 %2, ptr align 8 %5, i64 4, i1 false)
  %6 = getelementptr inbounds nuw %"class.clang::SourceLocation", ptr %2, i32 0, i32 0
  %7 = load i32, ptr %6, align 4
  ret i32 %7
}

; Function Attrs: mustprogress nounwind uwtable
define linkonce_odr hidden noundef zeroext i1 @_ZNK5clang14SourceLocation7isValidEv(ptr noundef nonnull align 4 dereferenceable(4) %0) #0 comdat align 2 {
  %2 = alloca ptr, align 8
  store ptr %0, ptr %2, align 8
  %3 = load ptr, ptr %2, align 8
  %4 = getelementptr inbounds nuw %"class.clang::SourceLocation", ptr %3, i32 0, i32 0
  %5 = load i32, ptr %4, align 4
  %6 = icmp ne i32 %5, 0
  ret i1 %6
}

; Function Attrs: mustprogress nounwind uwtable
define linkonce_odr hidden void @_ZN5clang24MemberSpecializationInfo29setTemplateSpecializationKindENS_26TemplateSpecializationKindE(ptr noundef nonnull align 8 dereferenceable(12) %0, i32 noundef %1) #0 comdat align 2 {
  %3 = alloca ptr, align 8
  %4 = alloca i32, align 4
  store ptr %0, ptr %3, align 8
  store i32 %1, ptr %4, align 4
  %5 = load ptr, ptr %3, align 8
  %6 = getelementptr inbounds nuw %"class.clang::MemberSpecializationInfo", ptr %5, i32 0, i32 0
  %7 = load i32, ptr %4, align 4
  %8 = sub nsw i32 %7, 1
  call void @_ZNR4llvm14PointerIntPairIPN5clang9NamedDeclELj2EjNS_21PointerLikeTypeTraitsIS3_EENS_18PointerIntPairInfoIS3_Lj2ES5_EEE6setIntEj(ptr noundef nonnull align 8 dereferenceable(8) %6, i32 noundef %8)
  ret void
}

; Function Attrs: mustprogress nounwind uwtable
define linkonce_odr hidden noundef ptr @_ZNK5clang8EnumDecl27getMemberSpecializationInfoEv(ptr noundef nonnull align 8 dereferenceable(156) %0) #0 comdat align 2 {
  %2 = alloca ptr, align 8
  store ptr %0, ptr %2, align 8
  %3 = load ptr, ptr %2, align 8
  %4 = getelementptr inbounds nuw %"class.clang::EnumDecl", ptr %3, i32 0, i32 3
  %5 = load ptr, ptr %4, align 8
  ret ptr %5
}

; Function Attrs: mustprogress nounwind uwtable
define dso_local void @_ZN5clang8EnumDecl29setTemplateSpecializationKindENS_26TemplateSpecializationKindENS_14SourceLocationE(ptr noundef nonnull align 8 dereferenceable(156) %0, i32 noundef %1, i32 %2) #0 align 2 {
  %4 = alloca %"class.clang::SourceLocation", align 4
  %5 = alloca ptr, align 8
  %6 = alloca i32, align 4
  %7 = alloca ptr, align 8
  %8 = alloca %"class.clang::SourceLocation", align 4
  %9 = alloca %"class.clang::SourceLocation", align 4
  %10 = getelementptr inbounds nuw %"class.clang::SourceLocation", ptr %4, i32 0, i32 0
  store i32 %2, ptr %10, align 4
  store ptr %0, ptr %5, align 8
  store i32 %1, ptr %6, align 4
  %11 = load ptr, ptr %5, align 8
  %12 = call noundef ptr @_ZNK5clang8EnumDecl27getMemberSpecializationInfoEv(ptr noundef nonnull align 8 dereferenceable(156) %11)
  store ptr %12, ptr %7, align 8
  %13 = load ptr, ptr %7, align 8
  %14 = load i32, ptr %6, align 4
  call void @_ZN5clang24MemberSpecializationInfo29setTemplateSpecializationKindENS_26TemplateSpecializationKindE(ptr noundef nonnull align 8 dereferenceable(12) %13, i32 noundef %14)
  %15 = load i32, ptr %6, align 4
  %16 = icmp ne i32 %15, 2
  br i1 %16, label %17, label %24

17:                                               ; preds = %3
  %18 = call noundef zeroext i1 @_ZNK5clang14SourceLocation7isValidEv(ptr noundef nonnull align 4 dereferenceable(4) %4)
  br i1 %18, label %19, label %24

19:                                               ; preds = %17
  %20 = load ptr, ptr %7, align 8
  %21 = call i32 @_ZNK5clang24MemberSpecializationInfo23getPointOfInstantiationEv(ptr noundef nonnull align 8 dereferenceable(12) %20)
  %22 = getelementptr inbounds nuw %"class.clang::SourceLocation", ptr %8, i32 0, i32 0
  store i32 %21, ptr %22, align 4
  %23 = call noundef zeroext i1 @_ZNK5clang14SourceLocation9isInvalidEv(ptr noundef nonnull align 4 dereferenceable(4) %8)
  br label %24

24:                                               ; preds = %19, %17, %3
  %25 = phi i1 [ false, %17 ], [ false, %3 ], [ %23, %19 ]
  br i1 %25, label %26, label %30

26:                                               ; preds = %24
  %27 = load ptr, ptr %7, align 8
  call void @llvm.memcpy.p0.p0.i64(ptr align 4 %9, ptr align 4 %4, i64 4, i1 false)
  %28 = getelementptr inbounds nuw %"class.clang::SourceLocation", ptr %9, i32 0, i32 0
  %29 = load i32, ptr %28, align 4
  call void @_ZN5clang24MemberSpecializationInfo23setPointOfInstantiationENS_14SourceLocationE(ptr noundef nonnull align 8 dereferenceable(12) %27, i32 %29)
  br label %30

30:                                               ; preds = %26, %24
  ret void
}