; Function Attrs: mustprogress nofree norecurse nosync nounwind willreturn memory(readwrite, inaccessiblemem: none) uwtable
define dso_local void @_ZN5clang8EnumDecl29setTemplateSpecializationKindENS_26TemplateSpecializationKindENS_14SourceLocationE(ptr nocapture noundef nonnull readonly align 8 dereferenceable(156) %0, i32 noundef %1, i32 %2) local_unnamed_addr #16 align 2 {
  %4 = getelementptr inbounds nuw i8, ptr %0, i64 144
  %5 = load ptr, ptr %4, align 8
  %6 = add nsw i32 %1, -1
  %.0.copyload.i.i.i.i = load i64, ptr %5, align 8
  %7 = zext i32 %6 to i64
  %8 = and i64 %.0.copyload.i.i.i.i, -7
  %9 = shl nuw nsw i64 %7, 1
  %10 = or i64 %8, %9
  store i64 %10, ptr %5, align 8
  %.not = icmp ne i32 %1, 2
  %11 = icmp ne i32 %2, 0
  %or.cond = select i1 %.not, i1 %11, i1 false
  br i1 %or.cond, label %12, label %.critedge

12:                                               ; preds = %3
  %13 = getelementptr inbounds nuw i8, ptr %5, i64 8
  %.sroa.0.0.copyload.i = load i32, ptr %13, align 8
  %14 = icmp eq i32 %.sroa.0.0.copyload.i, 0
  br i1 %14, label %15, label %.critedge

15:                                               ; preds = %12
  store i32 %2, ptr %13, align 8
  br label %.critedge

.critedge:                                        ; preds = %3, %15, %12
  ret void
}